target datalayout = "e-m:e-p270:32:32-p271:32:32-p272:64:64-i64:64-i128:128-f80:128-n8:16:32:64-S128"
target triple = "x86_64-pc-linux-gnu"

@.str.2 = private unnamed_addr constant [55 x i8] c"addWithPriority() is not implemented for this Executor\00", align 1
@_ZTISt13runtime_error = external constant ptr

; Function Attrs: mustprogress uwtable
define void @_ZN5folly8Executor15addWithPriorityENS_8FunctionIFvvEEEa(ptr noundef nonnull align 8 dereferenceable(8) %0, ptr noundef %1, i8 noundef signext %2) unnamed_addr #1 align 2 personality ptr @__gxx_personality_v0 {
  %4 = alloca ptr, align 8
  %5 = alloca ptr, align 8
  %6 = alloca i8, align 1
  %7 = alloca ptr, align 8
  %8 = alloca i32, align 4
  store ptr %0, ptr %4, align 8, !tbaa !7
  store ptr %1, ptr %5, align 8, !tbaa !12
  store i8 %2, ptr %6, align 1, !tbaa !14
  %9 = call ptr @__cxa_allocate_exception(i64 16) #19
  invoke void @_ZNSt13runtime_errorC1EPKc(ptr noundef nonnull align 8 dereferenceable(16) %9, ptr noundef @.str.2)
          to label %10 unwind label %11

10:                                               ; preds = %3
  call void @__cxa_throw(ptr %9, ptr @_ZTISt13runtime_error, ptr @_ZNSt13runtime_errorD1Ev) #20
  unreachable

11:                                               ; preds = %3
  %12 = landingpad { ptr, i32 }
          cleanup
  %13 = extractvalue { ptr, i32 } %12, 0
  store ptr %13, ptr %7, align 8
  %14 = extractvalue { ptr, i32 } %12, 1
  store i32 %14, ptr %8, align 4
  call void @__cxa_free_exception(ptr %9) #19
  br label %15

15:                                               ; preds = %11
  %16 = load ptr, ptr %7, align 8
  %17 = load i32, ptr %8, align 4
  %18 = insertvalue { ptr, i32 } poison, ptr %16, 0
  %19 = insertvalue { ptr, i32 } %18, i32 %17, 1
  resume { ptr, i32 } %19
}