; Function Attrs: mustprogress noreturn uwtable
define void @_ZN5folly8Executor15addWithPriorityENS_8FunctionIFvvEEEa(ptr nonnull readnone align 8 captures(none) %0, ptr readnone captures(none) %1, i8 signext %2) unnamed_addr #1 align 2 personality ptr @__gxx_personality_v0 {
  %4 = tail call ptr @__cxa_allocate_exception(i64 16) #24
  invoke void @_ZNSt13runtime_errorC1EPKc(ptr noundef nonnull align 8 dereferenceable(16) %4, ptr noundef nonnull @.str.2)
          to label %5 unwind label %6

5:                                                ; preds = %3
  tail call void @__cxa_throw(ptr nonnull %4, ptr nonnull @_ZTISt13runtime_error, ptr nonnull @_ZNSt13runtime_errorD1Ev) #25
  unreachable

6:                                                ; preds = %3
  %7 = landingpad { ptr, i32 }
          cleanup
  tail call void @__cxa_free_exception(ptr nonnull %4) #24
  resume { ptr, i32 } %7
}